target datalayout = "e-m:e-p270:32:32-p271:32:32-p272:64:64-i64:64-i128:128-f80:128-n8:16:32:64-S128"
target triple = "x86_64-pc-linux-gnu"

; Function Attrs: mustprogress nounwind uwtable
define internal noundef zeroext i1 @_ZN7jsonnet8internalL9is_symbolEc(i8 noundef signext %0) #4 {
  %2 = alloca i1, align 1
  %3 = alloca i8, align 1
  store i8 %0, ptr %3, align 1, !tbaa !15
  %4 = load i8, ptr %3, align 1, !tbaa !15
  %5 = sext i8 %4 to i32
  switch i32 %5, label %7 [
    i32 33, label %6
    i32 36, label %6
    i32 58, label %6
    i32 126, label %6
    i32 43, label %6
    i32 45, label %6
    i32 38, label %6
    i32 124, label %6
    i32 94, label %6
    i32 61, label %6
    i32 60, label %6
    i32 62, label %6
    i32 42, label %6
    i32 47, label %6
    i32 37, label %6
  ]

6:                                                ; preds = %1, %1, %1, %1, %1, %1, %1, %1, %1, %1, %1, %1, %1, %1, %1
  store i1 true, ptr %2, align 1
  br label %8

7:                                                ; preds = %1
  store i1 false, ptr %2, align 1
  br label %8

8:                                                ; preds = %7, %6
  %9 = load i1, ptr %2, align 1
  ret i1 %9
}