; Function Attrs: mustprogress nofree norecurse nosync nounwind willreturn memory(none) uwtable
define internal fastcc noundef zeroext i1 @_ZN7jsonnet8internalL9is_symbolEc(i8 noundef signext %0) unnamed_addr #4 {
  switch i8 %0, label %2 [
    i8 33, label %3
    i8 36, label %3
    i8 58, label %3
    i8 126, label %3
    i8 43, label %3
    i8 45, label %3
    i8 38, label %3
    i8 124, label %3
    i8 94, label %3
    i8 61, label %3
    i8 60, label %3
    i8 62, label %3
    i8 42, label %3
    i8 47, label %3
    i8 37, label %3
  ]

2:                                                ; preds = %1
  br label %3

3:                                                ; preds = %1, %1, %1, %1, %1, %1, %1, %1, %1, %1, %1, %1, %1, %1, %1, %2
  %.0 = phi i1 [ false, %2 ], [ true, %1 ], [ true, %1 ], [ true, %1 ], [ true, %1 ], [ true, %1 ], [ true, %1 ], [ true, %1 ], [ true, %1 ], [ true, %1 ], [ true, %1 ], [ true, %1 ], [ true, %1 ], [ true, %1 ], [ true, %1 ], [ true, %1 ]
  ret i1 %.0
}